target datalayout = "e-m:e-p270:32:32-p271:32:32-p272:64:64-i64:64-i128:128-f80:128-n8:16:32:64-S128"
target triple = "x86_64-pc-linux-gnu"

%"class.cv::utils::trace::details::Region" = type <{ ptr, i32, [4 x i8] }>
%"class.std::__cxx11::basic_string" = type { %"struct.std::__cxx11::basic_string<char>::_Alloc_hider", i64, %union.anon }
%"struct.std::__cxx11::basic_string<char>::_Alloc_hider" = type { ptr }
%union.anon = type { i64, [8 x i8] }

@.str.11 = private unnamed_addr constant [134 x i8] c"generated/home/dtcxzyw/WorkSpace/Projects/compilers/llvm-opt-benchmark/bench/opencv/opencv/modules/imgproc/src/color_yuv.dispatch.cpp\00", align 1
@.str.25 = private unnamed_addr constant [91 x i8] c"HAL implementation cvtBGRtoTwoPlaneYUV ==> hal_ni_cvtBGRtoTwoPlaneYUV returned %d (0x%08x)\00", align 1
@__func__._ZN2cv3hal19cvtBGRtoTwoPlaneYUVEPKhmPhS3_miiibi = private unnamed_addr constant [20 x i8] c"cvtBGRtoTwoPlaneYUV\00", align 1

; Function Attrs: mustprogress nounwind uwtable
define linkonce_odr hidden noundef i32 @_Z26hal_ni_cvtBGRtoTwoPlaneYUVPKhmPhmS1_miiibi(ptr noundef %0, i64 noundef %1, ptr noundef %2, i64 noundef %3, ptr noundef %4, i64 noundef %5, i32 noundef %6, i32 noundef %7, i32 noundef %8, i1 noundef zeroext %9, i32 noundef %10) #2 comdat {
  %12 = alloca ptr, align 8
  %13 = alloca i64, align 8
  %14 = alloca ptr, align 8
  %15 = alloca i64, align 8
  %16 = alloca ptr, align 8
  %17 = alloca i64, align 8
  %18 = alloca i32, align 4
  %19 = alloca i32, align 4
  %20 = alloca i32, align 4
  %21 = alloca i8, align 1
  %22 = alloca i32, align 4
  store ptr %0, ptr %12, align 8
  store i64 %1, ptr %13, align 8
  store ptr %2, ptr %14, align 8
  store i64 %3, ptr %15, align 8
  store ptr %4, ptr %16, align 8
  store i64 %5, ptr %17, align 8
  store i32 %6, ptr %18, align 4
  store i32 %7, ptr %19, align 4
  store i32 %8, ptr %20, align 4
  %23 = zext i1 %9 to i8
  store i8 %23, ptr %21, align 1
  store i32 %10, ptr %22, align 4
  ret i32 1
}

; Function Attrs: mustprogress uwtable
define void @_ZN2cv3hal19cvtBGRtoTwoPlaneYUVEPKhmPhS3_miiibi(ptr noundef %0, i64 noundef %1, ptr noundef %2, ptr noundef %3, i64 noundef %4, i32 noundef %5, i32 noundef %6, i32 noundef %7, i1 noundef zeroext %8, i32 noundef %9) #0 personality ptr @__gxx_personality_v0 {
  %11 = alloca ptr, align 8
  %12 = alloca i64, align 8
  %13 = alloca ptr, align 8
  %14 = alloca ptr, align 8
  %15 = alloca i64, align 8
  %16 = alloca i32, align 4
  %17 = alloca i32, align 4
  %18 = alloca i32, align 4
  %19 = alloca i8, align 1
  %20 = alloca i32, align 4
  %21 = alloca %"class.cv::utils::trace::details::Region", align 8
  %22 = alloca i32, align 4
  %23 = alloca ptr, align 8
  %24 = alloca i32, align 4
  %25 = alloca i32, align 4
  %26 = alloca %"class.std::__cxx11::basic_string", align 8
  store ptr %0, ptr %11, align 8
  store i64 %1, ptr %12, align 8
  store ptr %2, ptr %13, align 8
  store ptr %3, ptr %14, align 8
  store i64 %4, ptr %15, align 8
  store i32 %5, ptr %16, align 4
  store i32 %6, ptr %17, align 4
  store i32 %7, ptr %18, align 4
  %27 = zext i1 %8 to i8
  store i8 %27, ptr %19, align 1
  store i32 %9, ptr %20, align 4
  call void @_ZN2cv5utils5trace7details6RegionC1ERKNS3_21LocationStaticStorageE(ptr noundef nonnull align 8 dereferenceable(12) %21, ptr noundef nonnull align 8 dereferenceable(32) @_ZZN2cv3hal19cvtBGRtoTwoPlaneYUVEPKhmPhS3_miiibiE25__cv_trace_location_fn205)
  %28 = load ptr, ptr %11, align 8
  %29 = load i64, ptr %12, align 8
  %30 = load ptr, ptr %13, align 8
  %31 = load i64, ptr %15, align 8
  %32 = load ptr, ptr %14, align 8
  %33 = load i64, ptr %15, align 8
  %34 = load i32, ptr %16, align 4
  %35 = load i32, ptr %17, align 4
  %36 = load i32, ptr %18, align 4
  %37 = load i8, ptr %19, align 1
  %38 = trunc i8 %37 to i1
  %39 = load i32, ptr %20, align 4
  %40 = invoke noundef i32 @_Z26hal_ni_cvtBGRtoTwoPlaneYUVPKhmPhmS1_miiibi(ptr noundef %28, i64 noundef %29, ptr noundef %30, i64 noundef %31, ptr noundef %32, i64 noundef %33, i32 noundef %34, i32 noundef %35, i32 noundef %36, i1 noundef zeroext %38, i32 noundef %39)
          to label %41 unwind label %45

41:                                               ; preds = %10
  store i32 %40, ptr %22, align 4
  %42 = load i32, ptr %22, align 4
  %43 = icmp eq i32 %42, 0
  br i1 %43, label %44, label %49

44:                                               ; preds = %41
  store i32 1, ptr %25, align 4
  br label %75

45:                                               ; preds = %62, %52, %10
  %46 = landingpad { ptr, i32 }
          cleanup
  %47 = extractvalue { ptr, i32 } %46, 0
  store ptr %47, ptr %23, align 8
  %48 = extractvalue { ptr, i32 } %46, 1
  store i32 %48, ptr %24, align 4
  br label %76

49:                                               ; preds = %41
  %50 = load i32, ptr %22, align 4
  %51 = icmp ne i32 %50, 1
  br i1 %51, label %52, label %61

52:                                               ; preds = %49
  %53 = load i32, ptr %22, align 4
  %54 = load i32, ptr %22, align 4
  invoke void (ptr, ptr, ...) @_ZN2cv6formatB5cxx11EPKcz(ptr dead_on_unwind writable sret(%"class.std::__cxx11::basic_string") align 8 %26, ptr noundef @.str.25, i32 noundef %53, i32 noundef %54)
          to label %55 unwind label %45

55:                                               ; preds = %52
  invoke void @_ZN2cv5errorEiRKNSt7__cxx1112basic_stringIcSt11char_traitsIcESaIcEEEPKcS9_i(i32 noundef -3, ptr noundef nonnull align 8 dereferenceable(32) %26, ptr noundef @__func__._ZN2cv3hal19cvtBGRtoTwoPlaneYUVEPKhmPhS3_miiibi, ptr noundef @.str.11, i32 noundef 208) #12
          to label %56 unwind label %57

56:                                               ; preds = %55
  unreachable

57:                                               ; preds = %55
  %58 = landingpad { ptr, i32 }
          cleanup
  %59 = extractvalue { ptr, i32 } %58, 0
  store ptr %59, ptr %23, align 8
  %60 = extractvalue { ptr, i32 } %58, 1
  store i32 %60, ptr %24, align 4
  call void @_ZNSt7__cxx1112basic_stringIcSt11char_traitsIcESaIcEED1Ev(ptr noundef nonnull align 8 dereferenceable(32) %26) #10
  br label %76

61:                                               ; preds = %49
  br label %62

62:                                               ; preds = %61
  %63 = load ptr, ptr %11, align 8
  %64 = load i64, ptr %12, align 8
  %65 = load ptr, ptr %13, align 8
  %66 = load ptr, ptr %14, align 8
  %67 = load i64, ptr %15, align 8
  %68 = load i32, ptr %16, align 4
  %69 = load i32, ptr %17, align 4
  %70 = load i32, ptr %18, align 4
  %71 = load i8, ptr %19, align 1
  %72 = trunc i8 %71 to i1
  %73 = load i32, ptr %20, align 4
  invoke void @_ZN2cv3hal12cpu_baseline19cvtBGRtoTwoPlaneYUVEPKhmPhS4_miiibi(ptr noundef %63, i64 noundef %64, ptr noundef %65, ptr noundef %66, i64 noundef %67, i32 noundef %68, i32 noundef %69, i32 noundef %70, i1 noundef zeroext %72, i32 noundef %73)
          to label %74 unwind label %45

74:                                               ; preds = %62
  store i32 1, ptr %25, align 4
  br label %75

75:                                               ; preds = %74, %44
  call void @_ZN2cv5utils5trace7details6RegionD2Ev(ptr noundef nonnull align 8 dereferenceable(12) %21) #10
  ret void

76:                                               ; preds = %57, %45
  call void @_ZN2cv5utils5trace7details6RegionD2Ev(ptr noundef nonnull align 8 dereferenceable(12) %21) #10
  br label %77

77:                                               ; preds = %76
  %78 = load ptr, ptr %23, align 8
  %79 = load i32, ptr %24, align 4
  %80 = insertvalue { ptr, i32 } poison, ptr %78, 0
  %81 = insertvalue { ptr, i32 } %80, i32 %79, 1
  resume { ptr, i32 } %81
}